; Function Attrs: null_pointer_is_valid sspstrong uwtable
define internal noundef i32 @cmp_order(ptr noundef readonly captures(none) %0, ptr noundef readonly captures(none) %1, ptr noundef writeonly captures(none) initializes((0, 4)) %2) #0 {
  %4 = getelementptr inbounds nuw i8, ptr %0, i64 8
  %5 = load ptr, ptr %4, align 8
  %6 = getelementptr inbounds nuw i8, ptr %1, i64 8
  %7 = load ptr, ptr %6, align 8
  %8 = tail call i32 @g_bytes_compare(ptr noundef %5, ptr noundef %7)
  store i32 %8, ptr %2, align 4
  ret i32 0
}